target datalayout = "e-m:e-p270:32:32-p271:32:32-p272:64:64-i64:64-i128:128-f80:128-n8:16:32:64-S128"
target triple = "x86_64-pc-linux-gnu"

; Function Attrs: nounwind uwtable
define i64 @Java_java_lang_ProcessHandleImpl_isAlive0(ptr noundef %0, ptr noundef %1, i64 noundef %2) #0 {
  %4 = alloca ptr, align 8
  %5 = alloca ptr, align 8
  %6 = alloca i64, align 8
  %7 = alloca i32, align 4
  %8 = alloca i64, align 8
  %9 = alloca i64, align 8
  %10 = alloca i32, align 4
  store ptr %0, ptr %4, align 8
  store ptr %1, ptr %5, align 8
  store i64 %2, ptr %6, align 8
  %11 = load i64, ptr %6, align 8
  %12 = trunc i64 %11 to i32
  store i32 %12, ptr %7, align 4
  store i64 0, ptr %8, align 8
  store i64 0, ptr %9, align 8
  %13 = load ptr, ptr %4, align 8
  %14 = load i32, ptr %7, align 4
  %15 = call i32 @os_getParentPidAndTimings(ptr noundef %13, i32 noundef %14, ptr noundef %9, ptr noundef %8)
  store i32 %15, ptr %10, align 4
  %16 = load i32, ptr %10, align 4
  %17 = icmp slt i32 %16, 0
  br i1 %17, label %18, label %19

18:                                               ; preds = %3
  br label %21

19:                                               ; preds = %3
  %20 = load i64, ptr %8, align 8
  br label %21

21:                                               ; preds = %19, %18
  %22 = phi i64 [ -1, %18 ], [ %20, %19 ]
  ret i64 %22
}