; Function Attrs: nounwind uwtable
define i64 @Java_java_lang_ProcessHandleImpl_isAlive0(ptr noundef %0, ptr nocapture noundef readnone %1, i64 noundef %2) local_unnamed_addr #0 {
  %4 = alloca i64, align 8
  %5 = alloca i64, align 8
  %6 = trunc i64 %2 to i32
  store i64 0, ptr %4, align 8
  store i64 0, ptr %5, align 8
  %7 = call i32 @os_getParentPidAndTimings(ptr noundef %0, i32 noundef %6, ptr noundef nonnull %5, ptr noundef nonnull %4) #11
  %8 = icmp slt i32 %7, 0
  %9 = load i64, ptr %4, align 8
  %10 = select i1 %8, i64 -1, i64 %9
  ret i64 %10
}